target datalayout = "e-m:e-p270:32:32-p271:32:32-p272:64:64-i64:64-i128:128-f80:128-n8:16:32:64-S128"
target triple = "x86_64-unknown-linux-gnu"

%"class.std::set.0" = type { %"class.std::_Rb_tree.1" }
%"class.std::_Rb_tree.1" = type { %"struct.std::_Rb_tree<QuantLib::Observer *, QuantLib::Observer *, std::_Identity<QuantLib::Observer *>, std::less<QuantLib::Observer *>>::_Rb_tree_impl" }
%"struct.std::_Rb_tree<QuantLib::Observer *, QuantLib::Observer *, std::_Identity<QuantLib::Observer *>, std::less<QuantLib::Observer *>>::_Rb_tree_impl" = type { [8 x i8], %"struct.std::_Rb_tree_header" }
%"struct.std::_Rb_tree_header" = type { %"struct.std::_Rb_tree_node_base", i64 }
%"struct.std::_Rb_tree_node_base" = type { i32, ptr, ptr, ptr }
%"class.std::set" = type { %"class.std::_Rb_tree" }
%"class.std::_Rb_tree" = type { %"struct.std::_Rb_tree<boost::shared_ptr<QuantLib::Observable>, boost::shared_ptr<QuantLib::Observable>, std::_Identity<boost::shared_ptr<QuantLib::Observable>>, std::less<boost::shared_ptr<QuantLib::Observable>>>::_Rb_tree_impl" }
%"struct.std::_Rb_tree<boost::shared_ptr<QuantLib::Observable>, boost::shared_ptr<QuantLib::Observable>, std::_Identity<boost::shared_ptr<QuantLib::Observable>>, std::less<boost::shared_ptr<QuantLib::Observable>>>::_Rb_tree_impl" = type { [8 x i8], %"struct.std::_Rb_tree_header" }
%"class.boost::detail::shared_count" = type { ptr }
%"class.QuantLib::Observable" = type { ptr, %"class.std::set.0" }
%"class.QuantLib::Observer" = type { ptr, %"class.std::set" }
%"class.QuantLib::DayCounter" = type { %"class.boost::shared_ptr.16" }
%"class.boost::shared_ptr.16" = type { ptr, %"class.boost::detail::shared_count" }
%"class.QuantLib::CashFlow.base" = type <{ %"class.QuantLib::Event.base", %"class.QuantLib::LazyObject.base" }>
%"class.QuantLib::Event.base" = type { ptr }
%"class.QuantLib::LazyObject.base" = type <{ ptr, i8, i8, i8, i8 }>
%"class.QuantLib::Date" = type { i64 }
%"class.boost::shared_ptr.49" = type { ptr, %"class.boost::detail::shared_count" }
%"class.std::vector.30" = type { %"struct.std::_Vector_base.31" }
%"struct.std::_Vector_base.31" = type { %"struct.std::_Vector_base<QuantLib::Date, std::allocator<QuantLib::Date>>::_Vector_impl" }
%"struct.std::_Vector_base<QuantLib::Date, std::allocator<QuantLib::Date>>::_Vector_impl" = type { %"struct.std::_Vector_base<QuantLib::Date, std::allocator<QuantLib::Date>>::_Vector_impl_data" }
%"struct.std::_Vector_base<QuantLib::Date, std::allocator<QuantLib::Date>>::_Vector_impl_data" = type { ptr, ptr, ptr }
%"class.QuantLib::SubPeriodsCoupon" = type { %"class.QuantLib::FloatingRateCoupon.base", %"class.std::vector.30", %"class.std::vector.30", i64, %"class.std::vector.35", double, %"class.QuantLib::Observable", %"class.QuantLib::Observer" }
%"class.QuantLib::FloatingRateCoupon.base" = type { %"class.QuantLib::Coupon.base", %"class.boost::shared_ptr.49", %"class.QuantLib::DayCounter", i32, double, double, i8, %"class.boost::shared_ptr.50", double }
%"class.QuantLib::Coupon.base" = type { %"class.QuantLib::CashFlow.base", %"class.QuantLib::Date", double, %"class.QuantLib::Date", %"class.QuantLib::Date", %"class.QuantLib::Date", %"class.QuantLib::Date", %"class.QuantLib::Date", double }
%"class.boost::shared_ptr.50" = type { ptr, %"class.boost::detail::shared_count" }
%"class.std::vector.35" = type { %"struct.std::_Vector_base.36" }
%"struct.std::_Vector_base.36" = type { %"struct.std::_Vector_base<double, std::allocator<double>>::_Vector_impl" }
%"struct.std::_Vector_base<double, std::allocator<double>>::_Vector_impl" = type { %"struct.std::_Vector_base<double, std::allocator<double>>::_Vector_impl_data" }
%"struct.std::_Vector_base<double, std::allocator<double>>::_Vector_impl_data" = type { ptr, ptr, ptr }
%"class.QuantLib::FloatingRateCoupon" = type { %"class.QuantLib::Coupon.base", %"class.boost::shared_ptr.49", %"class.QuantLib::DayCounter", i32, double, double, i8, %"class.boost::shared_ptr.50", double, %"class.QuantLib::Observable", %"class.QuantLib::Observer" }
%"class.QuantLib::SubPeriodsPricer" = type { %"class.QuantLib::FloatingRateCouponPricer.base", ptr, %"class.std::vector.35", %"class.QuantLib::Observer", %"class.QuantLib::Observable" }
%"class.QuantLib::FloatingRateCouponPricer.base" = type { ptr }

; Function Attrs: mustprogress nounwind uwtable
define linkonce_odr noundef double @_ZNK8QuantLib18FloatingRateCoupon6spreadEv(ptr noundef nonnull align 8 dereferenceable(176) %this) #1 comdat align 2 {
entry:
  %this.addr = alloca ptr, align 8
  store ptr %this, ptr %this.addr, align 8, !tbaa !3
  %this1 = load ptr, ptr %this.addr, align 8
  %spread_ = getelementptr inbounds nuw %"class.QuantLib::FloatingRateCoupon", ptr %this1, i32 0, i32 5
  %0 = load double, ptr %spread_, align 8, !tbaa !118
  ret double %0
}

; Function Attrs: mustprogress nounwind uwtable
define linkonce_odr noundef double @_ZNK8QuantLib18FloatingRateCoupon7gearingEv(ptr noundef nonnull align 8 dereferenceable(176) %this) #1 comdat align 2 {
entry:
  %this.addr = alloca ptr, align 8
  store ptr %this, ptr %this.addr, align 8, !tbaa !3
  %this1 = load ptr, ptr %this.addr, align 8
  %gearing_ = getelementptr inbounds nuw %"class.QuantLib::FloatingRateCoupon", ptr %this1, i32 0, i32 4
  %0 = load double, ptr %gearing_, align 8, !tbaa !117
  ret double %0
}

; Function Attrs: mustprogress nounwind uwtable
define linkonce_odr noundef nonnull align 8 dereferenceable(8) ptr @_ZNKSt6vectorIdSaIdEEixEm(ptr noundef nonnull align 8 dereferenceable(24) %this, i64 noundef %__n) #1 comdat align 2 {
entry:
  %this.addr = alloca ptr, align 8
  %__n.addr = alloca i64, align 8
  store ptr %this, ptr %this.addr, align 8, !tbaa !3
  store i64 %__n, ptr %__n.addr, align 8, !tbaa !51
  %this1 = load ptr, ptr %this.addr, align 8
  %_M_impl = getelementptr inbounds nuw %"struct.std::_Vector_base.36", ptr %this1, i32 0, i32 0
  %_M_start = getelementptr inbounds nuw %"struct.std::_Vector_base<double, std::allocator<double>>::_Vector_impl_data", ptr %_M_impl, i32 0, i32 0
  %0 = load ptr, ptr %_M_start, align 8, !tbaa !108
  %1 = load i64, ptr %__n.addr, align 8, !tbaa !51
  %add.ptr = getelementptr inbounds nuw double, ptr %0, i64 %1
  ret ptr %add.ptr
}

; Function Attrs: mustprogress nounwind uwtable
define linkonce_odr noundef i64 @_ZNKSt6vectorIdSaIdEE4sizeEv(ptr noundef nonnull align 8 dereferenceable(24) %this) #1 comdat align 2 {
entry:
  %this.addr = alloca ptr, align 8
  store ptr %this, ptr %this.addr, align 8, !tbaa !3
  %this1 = load ptr, ptr %this.addr, align 8
  %_M_impl = getelementptr inbounds nuw %"struct.std::_Vector_base.36", ptr %this1, i32 0, i32 0
  %_M_finish = getelementptr inbounds nuw %"struct.std::_Vector_base<double, std::allocator<double>>::_Vector_impl_data", ptr %_M_impl, i32 0, i32 1
  %0 = load ptr, ptr %_M_finish, align 8, !tbaa !109
  %_M_impl2 = getelementptr inbounds nuw %"struct.std::_Vector_base.36", ptr %this1, i32 0, i32 0
  %_M_start = getelementptr inbounds nuw %"struct.std::_Vector_base<double, std::allocator<double>>::_Vector_impl_data", ptr %_M_impl2, i32 0, i32 0
  %1 = load ptr, ptr %_M_start, align 8, !tbaa !108
  %sub.ptr.lhs.cast = ptrtoint ptr %0 to i64
  %sub.ptr.rhs.cast = ptrtoint ptr %1 to i64
  %sub.ptr.sub = sub i64 %sub.ptr.lhs.cast, %sub.ptr.rhs.cast
  %sub.ptr.div = sdiv exact i64 %sub.ptr.sub, 8
  ret i64 %sub.ptr.div
}

; Function Attrs: mustprogress nounwind uwtable
define linkonce_odr noundef nonnull align 8 dereferenceable(24) ptr @_ZNK8QuantLib16SubPeriodsCoupon2dtEv(ptr noundef nonnull align 8 dereferenceable(264) %this) #1 comdat align 2 {
entry:
  %this.addr = alloca ptr, align 8
  store ptr %this, ptr %this.addr, align 8, !tbaa !3
  %this1 = load ptr, ptr %this.addr, align 8
  %dt_ = getelementptr inbounds nuw %"class.QuantLib::SubPeriodsCoupon", ptr %this1, i32 0, i32 4
  ret ptr %dt_
}

; Function Attrs: mustprogress uwtable
define noundef double @_ZNK8QuantLib21CompoundingRatePricer11swapletRateEv(ptr noundef nonnull align 8 dereferenceable(40) %this) unnamed_addr #2 align 2 {
entry:
  %this.addr = alloca ptr, align 8
  %compoundFactor = alloca double, align 8
  %subPeriodFractions = alloca ptr, align 8
  %nCount = alloca i64, align 8
  %i = alloca i64, align 8
  %rate = alloca double, align 8
  store ptr %this, ptr %this.addr, align 8, !tbaa !3
  %this1 = load ptr, ptr %this.addr, align 8
  call void @llvm.lifetime.start.p0(i64 8, ptr %compoundFactor) #18
  store double 1.000000e+00, ptr %compoundFactor, align 8, !tbaa !31
  call void @llvm.lifetime.start.p0(i64 8, ptr %subPeriodFractions) #18
  %coupon_ = getelementptr inbounds nuw %"class.QuantLib::SubPeriodsPricer", ptr %this1, i32 0, i32 1
  %0 = load ptr, ptr %coupon_, align 8, !tbaa !112
  %call = call noundef nonnull align 8 dereferenceable(24) ptr @_ZNK8QuantLib16SubPeriodsCoupon2dtEv(ptr noundef nonnull align 8 dereferenceable(264) %0)
  store ptr %call, ptr %subPeriodFractions, align 8, !tbaa !3
  call void @llvm.lifetime.start.p0(i64 8, ptr %nCount) #18
  %subPeriodFixings_ = getelementptr inbounds nuw %"class.QuantLib::SubPeriodsPricer", ptr %this1, i32 0, i32 2
  %call2 = call noundef i64 @_ZNKSt6vectorIdSaIdEE4sizeEv(ptr noundef nonnull align 8 dereferenceable(24) %subPeriodFixings_) #18
  store i64 %call2, ptr %nCount, align 8, !tbaa !51
  call void @llvm.lifetime.start.p0(i64 8, ptr %i) #18
  store i64 0, ptr %i, align 8, !tbaa !51
  br label %for.cond

for.cond:                                         ; preds = %for.inc, %entry
  %1 = load i64, ptr %i, align 8, !tbaa !51
  %2 = load i64, ptr %nCount, align 8, !tbaa !51
  %cmp = icmp ult i64 %1, %2
  br i1 %cmp, label %for.body, label %for.cond.cleanup

for.cond.cleanup:                                 ; preds = %for.cond
  call void @llvm.lifetime.end.p0(i64 8, ptr %i) #18
  br label %for.end

for.body:                                         ; preds = %for.cond
  %subPeriodFixings_3 = getelementptr inbounds nuw %"class.QuantLib::SubPeriodsPricer", ptr %this1, i32 0, i32 2
  %3 = load i64, ptr %i, align 8, !tbaa !51
  %call4 = call noundef nonnull align 8 dereferenceable(8) ptr @_ZNKSt6vectorIdSaIdEEixEm(ptr noundef nonnull align 8 dereferenceable(24) %subPeriodFixings_3, i64 noundef %3) #18
  %4 = load double, ptr %call4, align 8, !tbaa !31
  %5 = load ptr, ptr %subPeriodFractions, align 8, !tbaa !3
  %6 = load i64, ptr %i, align 8, !tbaa !51
  %call5 = call noundef nonnull align 8 dereferenceable(8) ptr @_ZNKSt6vectorIdSaIdEEixEm(ptr noundef nonnull align 8 dereferenceable(24) %5, i64 noundef %6) #18
  %7 = load double, ptr %call5, align 8, !tbaa !31
  %8 = call double @llvm.fmuladd.f64(double %4, double %7, double 1.000000e+00)
  %9 = load double, ptr %compoundFactor, align 8, !tbaa !31
  %mul = fmul double %9, %8
  store double %mul, ptr %compoundFactor, align 8, !tbaa !31
  br label %for.inc

for.inc:                                          ; preds = %for.body
  %10 = load i64, ptr %i, align 8, !tbaa !51
  %inc = add i64 %10, 1
  store i64 %inc, ptr %i, align 8, !tbaa !51
  br label %for.cond, !llvm.loop !119

for.end:                                          ; preds = %for.cond.cleanup
  call void @llvm.lifetime.start.p0(i64 8, ptr %rate) #18
  %11 = load double, ptr %compoundFactor, align 8, !tbaa !31
  %sub = fsub double %11, 1.000000e+00
  %coupon_6 = getelementptr inbounds nuw %"class.QuantLib::SubPeriodsPricer", ptr %this1, i32 0, i32 1
  %12 = load ptr, ptr %coupon_6, align 8, !tbaa !112
  %call7 = call noundef double @_ZNK8QuantLib6Coupon13accrualPeriodEv(ptr noundef nonnull align 8 dereferenceable(88) %12)
  %div = fdiv double %sub, %call7
  store double %div, ptr %rate, align 8, !tbaa !31
  %coupon_8 = getelementptr inbounds nuw %"class.QuantLib::SubPeriodsPricer", ptr %this1, i32 0, i32 1
  %13 = load ptr, ptr %coupon_8, align 8, !tbaa !112
  %call9 = call noundef double @_ZNK8QuantLib18FloatingRateCoupon7gearingEv(ptr noundef nonnull align 8 dereferenceable(176) %13)
  %14 = load double, ptr %rate, align 8, !tbaa !31
  %coupon_11 = getelementptr inbounds nuw %"class.QuantLib::SubPeriodsPricer", ptr %this1, i32 0, i32 1
  %15 = load ptr, ptr %coupon_11, align 8, !tbaa !112
  %call12 = call noundef double @_ZNK8QuantLib18FloatingRateCoupon6spreadEv(ptr noundef nonnull align 8 dereferenceable(176) %15)
  %16 = call double @llvm.fmuladd.f64(double %call9, double %14, double %call12)
  call void @llvm.lifetime.end.p0(i64 8, ptr %rate) #18
  call void @llvm.lifetime.end.p0(i64 8, ptr %nCount) #18
  call void @llvm.lifetime.end.p0(i64 8, ptr %subPeriodFractions) #18
  call void @llvm.lifetime.end.p0(i64 8, ptr %compoundFactor) #18
  ret double %16
}