; Function Attrs: mustprogress uwtable
define noundef double @_ZNK8QuantLib21CompoundingRatePricer11swapletRateEv(ptr nocapture noundef nonnull readonly align 8 dereferenceable(40) %this) unnamed_addr #8 align 2 {
entry:
  %coupon_ = getelementptr inbounds nuw i8, ptr %this, i64 8
  %0 = load ptr, ptr %coupon_, align 8, !tbaa !123
  %subPeriodFixings_ = getelementptr inbounds nuw i8, ptr %this, i64 16
  %_M_finish.i = getelementptr inbounds nuw i8, ptr %this, i64 24
  %1 = load ptr, ptr %_M_finish.i, align 8, !tbaa !108
  %2 = load ptr, ptr %subPeriodFixings_, align 8, !tbaa !109
  %cmp6.not = icmp eq ptr %1, %2
  br i1 %cmp6.not, label %for.cond.cleanup, label %for.body.lr.ph

for.body.lr.ph:                                   ; preds = %entry
  %sub.ptr.lhs.cast.i = ptrtoint ptr %1 to i64
  %sub.ptr.rhs.cast.i = ptrtoint ptr %2 to i64
  %sub.ptr.sub.i = sub i64 %sub.ptr.lhs.cast.i, %sub.ptr.rhs.cast.i
  %sub.ptr.div.i = ashr exact i64 %sub.ptr.sub.i, 3
  %dt_.i = getelementptr inbounds nuw i8, ptr %0, i64 232
  %3 = load ptr, ptr %dt_.i, align 8, !tbaa !109
  %umax = tail call i64 @llvm.umax.i64(i64 %sub.ptr.div.i, i64 1)
  br label %for.body

for.cond.cleanup.loopexit:                        ; preds = %for.body
  %4 = fadd double %mul, -1.000000e+00
  br label %for.cond.cleanup

for.cond.cleanup:                                 ; preds = %for.cond.cleanup.loopexit, %entry
  %compoundFactor.0.lcssa = phi double [ 0.000000e+00, %entry ], [ %4, %for.cond.cleanup.loopexit ]
  %call7 = tail call noundef double @_ZNK8QuantLib6Coupon13accrualPeriodEv(ptr noundef nonnull align 8 dereferenceable(88) %0)
  %div = fdiv double %compoundFactor.0.lcssa, %call7
  %5 = load ptr, ptr %coupon_, align 8, !tbaa !123
  %gearing_.i = getelementptr inbounds nuw i8, ptr %5, i64 128
  %6 = load double, ptr %gearing_.i, align 8, !tbaa !169
  %spread_.i = getelementptr inbounds nuw i8, ptr %5, i64 136
  %7 = load double, ptr %spread_.i, align 8, !tbaa !170
  %8 = tail call double @llvm.fmuladd.f64(double %6, double %div, double %7)
  ret double %8

for.body:                                         ; preds = %for.body.lr.ph, %for.body
  %compoundFactor.08 = phi double [ 1.000000e+00, %for.body.lr.ph ], [ %mul, %for.body ]
  %i.07 = phi i64 [ 0, %for.body.lr.ph ], [ %inc, %for.body ]
  %add.ptr.i = getelementptr inbounds nuw double, ptr %2, i64 %i.07
  %9 = load double, ptr %add.ptr.i, align 8, !tbaa !117
  %add.ptr.i5 = getelementptr inbounds nuw double, ptr %3, i64 %i.07
  %10 = load double, ptr %add.ptr.i5, align 8, !tbaa !117
  %11 = tail call double @llvm.fmuladd.f64(double %9, double %10, double 1.000000e+00)
  %mul = fmul double %compoundFactor.08, %11
  %inc = add nuw i64 %i.07, 1
  %exitcond.not = icmp eq i64 %inc, %umax
  br i1 %exitcond.not, label %for.cond.cleanup.loopexit, label %for.body, !llvm.loop !172
}